(lp0
(S'cppflags'
p1
ccopy_reg
_reconstructor
p2
(cino.utils
SpaceList
p3
c__builtin__
list
p4
(lp5
S'-mmcu=atmega328p'
p6
aS'-DF_CPU=16000000L'
p7
aS'-DARDUINO=105'
p8
aS'-I/usr/share/arduino/hardware/arduino/cores/arduino'
p9
aS'-ffunction-sections'
p10
aS'-fdata-sections'
p11
aS'-g'
p12
aS'-Os'
p13
aS'-w'
p14
aS'-I/usr/share/arduino/hardware/arduino/variants/standard'
p15
aS'-I/usr/share/arduino/hardware/arduino/cores/arduino'
p16
aS'-I/usr/share/arduino/hardware/arduino/cores/arduino/avr-libc'
p17
atp18
Rp19
tp20
a(S'cc'
p21
S'/usr/share/arduino/hardware/tools/avr/bin/avr-gcc'
p22
tp23
a(S'version.txt'
p24
S'/usr/share/arduino/lib/version.txt'
p25
tp26
a(S'used_libs'
p27
(lp28
S'/usr/share/arduino/hardware/arduino/cores/arduino'
p29
atp30
a(S'cxx'
p31
S'/usr/share/arduino/hardware/tools/avr/bin/avr-g++'
p32
tp33
a(S'make'
p34
S'/usr/share/arduino/hardware/tools/avr/bin/make'
p35
tp36
a(S'build_dir'
p37
S'.build/uno'
p38
tp39
a(S'arduino_core_dir'
p40
g29
tp41
a(S'boards.txt'
p42
S'/usr/share/arduino/hardware/arduino/boards.txt'
p43
tp44
a(S'cxxflags'
p45
g2
(g3
g4
(lp46
S'-fno-exceptions'
p47
atp48
Rp49
tp50
a(S'arduino_variants_dir'
p51
S'/usr/share/arduino/hardware/arduino/variants'
p52
tp53
a(S'deps'
p54
g2
(g3
g4
(lp55
S'.build/uno/src/dependencies.d'
p56
aS'.build/uno/arduino/dependencies.d'
p57
atp58
Rp59
tp60
a(S'ar'
p61
S'/usr/share/arduino/hardware/tools/avr/bin/avr-ar'
p62
tp63
a(S'names'
p64
(dp65
S'cpp'
p66
S'%s.cpp'
p67
sS'obj'
p68
S'%s.o'
p69
sS'deps'
p70
S'%s.d'
p71
sS'lib'
p72
S'lib%s.a'
p73
stp74
a(S'cflags'
p75
g2
(g3
g4
(lp76
tp77
Rp78
tp79
a(S'arduino_libraries_dir'
p80
S'/usr/share/arduino/libraries'
p81
tp82
a(S'arduino_lib_version'
p83
g2
(cino.environment
Version
p84
c__builtin__
tuple
p85
(I1
I0
I5
tp86
tp87
Rp88
tp89
a(S'objcopy'
p90
S'/usr/share/arduino/hardware/tools/avr/bin/avr-objcopy'
p91
tp92
a(S'board_models'
p93
cino.environment
BoardModels
p94
((lp95
(lp96
S'uno'
p97
a(dp98
S'bootloader'
p99
(dp100
S'extended_fuses'
p101
S'0x05'
p102
sS'high_fuses'
p103
S'0xde'
p104
sS'low_fuses'
p105
S'0xff'
p106
sS'lock_bits'
p107
S'0x0F'
p108
sS'file'
p109
S'optiboot_atmega328.hex'
p110
sS'path'
p111
S'optiboot'
p112
sS'unlock_bits'
p113
S'0x3F'
p114
ssS'build'
p115
(dp116
S'core'
p117
S'arduino'
p118
sS'mcu'
p119
S'atmega328p'
p120
sS'f_cpu'
p121
S'16000000L'
p122
sS'variant'
p123
S'standard'
p124
ssS'name'
p125
S'Arduino Uno'
p126
sS'upload'
p127
(dp128
S'speed'
p129
S'115200'
p130
sS'maximum_size'
p131
S'32256'
p132
sS'protocol'
p133
S'arduino'
p134
ssaa(lp135
S'atmega328'
p136
a(dp137
S'bootloader'
p138
(dp139
S'extended_fuses'
p140
S'0x05'
p141
sS'high_fuses'
p142
S'0xDA'
p143
sS'low_fuses'
p144
S'0xFF'
p145
sS'lock_bits'
p146
S'0x0F'
p147
sS'file'
p148
S'ATmegaBOOT_168_atmega328.hex'
p149
sS'path'
p150
S'atmega'
p151
sS'unlock_bits'
p152
S'0x3F'
p153
ssS'build'
p154
(dp155
S'core'
p156
S'arduino'
p157
sS'mcu'
p158
S'atmega328p'
p159
sS'f_cpu'
p160
S'16000000L'
p161
sS'variant'
p162
S'standard'
p163
ssS'name'
p164
S'Arduino Duemilanove w/ ATmega328'
p165
sS'upload'
p166
(dp167
S'speed'
p168
S'57600'
p169
sS'maximum_size'
p170
S'30720'
p171
sS'protocol'
p172
S'arduino'
p173
ssaa(lp174
S'diecimila'
p175
a(dp176
S'bootloader'
p177
(dp178
S'extended_fuses'
p179
S'0x00'
p180
sS'high_fuses'
p181
S'0xdd'
p182
sS'low_fuses'
p183
S'0xff'
p184
sS'lock_bits'
p185
S'0x0F'
p186
sS'file'
p187
S'ATmegaBOOT_168_diecimila.hex'
p188
sS'path'
p189
S'atmega'
p190
sS'unlock_bits'
p191
S'0x3F'
p192
ssS'build'
p193
(dp194
S'core'
p195
S'arduino'
p196
sS'mcu'
p197
S'atmega168'
p198
sS'f_cpu'
p199
S'16000000L'
p200
sS'variant'
p201
S'standard'
p202
ssS'name'
p203
S'Arduino Diecimila or Duemilanove w/ ATmega168'
p204
sS'upload'
p205
(dp206
S'speed'
p207
S'19200'
p208
sS'maximum_size'
p209
S'14336'
p210
sS'protocol'
p211
S'arduino'
p212
ssaa(lp213
S'nano328'
p214
a(dp215
S'bootloader'
p216
(dp217
S'extended_fuses'
p218
S'0x05'
p219
sS'high_fuses'
p220
S'0xDA'
p221
sS'low_fuses'
p222
S'0xFF'
p223
sS'lock_bits'
p224
S'0x0F'
p225
sS'file'
p226
S'ATmegaBOOT_168_atmega328.hex'
p227
sS'path'
p228
S'atmega'
p229
sS'unlock_bits'
p230
S'0x3F'
p231
ssS'build'
p232
(dp233
S'core'
p234
S'arduino'
p235
sS'mcu'
p236
S'atmega328p'
p237
sS'f_cpu'
p238
S'16000000L'
p239
sS'variant'
p240
S'eightanaloginputs'
p241
ssS'name'
p242
S'Arduino Nano w/ ATmega328'
p243
sS'upload'
p244
(dp245
S'speed'
p246
S'57600'
p247
sS'maximum_size'
p248
S'30720'
p249
sS'protocol'
p250
S'arduino'
p251
ssaa(lp252
S'nano'
p253
a(dp254
S'bootloader'
p255
(dp256
S'extended_fuses'
p257
S'0x00'
p258
sS'high_fuses'
p259
S'0xdd'
p260
sS'low_fuses'
p261
S'0xff'
p262
sS'lock_bits'
p263
S'0x0F'
p264
sS'file'
p265
S'ATmegaBOOT_168_diecimila.hex'
p266
sS'path'
p267
S'atmega'
p268
sS'unlock_bits'
p269
S'0x3F'
p270
ssS'build'
p271
(dp272
S'core'
p273
S'arduino'
p274
sS'mcu'
p275
S'atmega168'
p276
sS'f_cpu'
p277
S'16000000L'
p278
sS'variant'
p279
S'eightanaloginputs'
p280
ssS'name'
p281
S'Arduino Nano w/ ATmega168'
p282
sS'upload'
p283
(dp284
S'speed'
p285
S'19200'
p286
sS'maximum_size'
p287
S'14336'
p288
sS'protocol'
p289
S'arduino'
p290
ssaa(lp291
S'mega2560'
p292
a(dp293
S'bootloader'
p294
(dp295
S'extended_fuses'
p296
S'0xFD'
p297
sS'high_fuses'
p298
S'0xD8'
p299
sS'low_fuses'
p300
S'0xFF'
p301
sS'lock_bits'
p302
S'0x0F'
p303
sS'file'
p304
S'stk500boot_v2_mega2560.hex'
p305
sS'path'
p306
S'stk500v2'
p307
sS'unlock_bits'
p308
S'0x3F'
p309
ssS'build'
p310
(dp311
S'core'
p312
S'arduino'
p313
sS'mcu'
p314
S'atmega2560'
p315
sS'f_cpu'
p316
S'16000000L'
p317
sS'variant'
p318
S'mega'
p319
ssS'name'
p320
S'Arduino Mega 2560 or Mega ADK'
p321
sS'upload'
p322
(dp323
S'speed'
p324
S'115200'
p325
sS'maximum_size'
p326
S'258048'
p327
sS'protocol'
p328
S'wiring'
p329
ssaa(lp330
S'mega'
p331
a(dp332
S'bootloader'
p333
(dp334
S'extended_fuses'
p335
S'0xF5'
p336
sS'high_fuses'
p337
S'0xDA'
p338
sS'low_fuses'
p339
S'0xFF'
p340
sS'lock_bits'
p341
S'0x0F'
p342
sS'file'
p343
S'ATmegaBOOT_168_atmega1280.hex'
p344
sS'path'
p345
S'atmega'
p346
sS'unlock_bits'
p347
S'0x3F'
p348
ssS'build'
p349
(dp350
S'core'
p351
S'arduino'
p352
sS'mcu'
p353
S'atmega1280'
p354
sS'f_cpu'
p355
S'16000000L'
p356
sS'variant'
p357
S'mega'
p358
ssS'name'
p359
S'Arduino Mega (ATmega1280)'
p360
sS'upload'
p361
(dp362
S'speed'
p363
S'57600'
p364
sS'maximum_size'
p365
S'126976'
p366
sS'protocol'
p367
S'arduino'
p368
ssaa(lp369
S'leonardo'
p370
a(dp371
S'bootloader'
p372
(dp373
S'extended_fuses'
p374
S'0xcb'
p375
sS'high_fuses'
p376
S'0xd8'
p377
sS'low_fuses'
p378
S'0xff'
p379
sS'lock_bits'
p380
S'0x2F'
p381
sS'file'
p382
S'Caterina-Leonardo.hex'
p383
sS'path'
p384
S'caterina'
p385
sS'unlock_bits'
p386
S'0x3F'
p387
ssS'build'
p388
(dp389
S'core'
p390
S'arduino'
p391
sS'f_cpu'
p392
S'16000000L'
p393
sS'vid'
p394
S'0x2341'
p395
sS'pid'
p396
S'0x8036'
p397
sS'variant'
p398
S'leonardo'
p399
sS'mcu'
p400
S'atmega32u4'
p401
ssS'name'
p402
S'Arduino Leonardo'
p403
sS'upload'
p404
(dp405
S'speed'
p406
S'57600'
p407
sS'maximum_size'
p408
S'28672'
p409
sS'protocol'
p410
S'avr109'
p411
sS'disable_flushing'
p412
S'true'
p413
ssaa(lp414
S'esplora'
p415
a(dp416
S'bootloader'
p417
(dp418
S'extended_fuses'
p419
S'0xcb'
p420
sS'high_fuses'
p421
S'0xd8'
p422
sS'low_fuses'
p423
S'0xff'
p424
sS'lock_bits'
p425
S'0x2F'
p426
sS'file'
p427
S'Caterina-Esplora.hex'
p428
sS'path'
p429
S'caterina'
p430
sS'unlock_bits'
p431
S'0x3F'
p432
ssS'build'
p433
(dp434
S'core'
p435
S'arduino'
p436
sS'f_cpu'
p437
S'16000000L'
p438
sS'vid'
p439
S'0x2341'
p440
sS'pid'
p441
S'0x803C'
p442
sS'variant'
p443
S'leonardo'
p444
sS'mcu'
p445
S'atmega32u4'
p446
ssS'name'
p447
S'Arduino Esplora'
p448
sS'upload'
p449
(dp450
S'speed'
p451
S'57600'
p452
sS'maximum_size'
p453
S'28672'
p454
sS'protocol'
p455
S'avr109'
p456
sS'disable_flushing'
p457
S'true'
p458
ssaa(lp459
S'micro'
p460
a(dp461
S'bootloader'
p462
(dp463
S'extended_fuses'
p464
S'0xcb'
p465
sS'high_fuses'
p466
S'0xd8'
p467
sS'low_fuses'
p468
S'0xff'
p469
sS'lock_bits'
p470
S'0x2F'
p471
sS'file'
p472
S'Caterina-Micro.hex'
p473
sS'path'
p474
S'caterina'
p475
sS'unlock_bits'
p476
S'0x3F'
p477
ssS'build'
p478
(dp479
S'core'
p480
S'arduino'
p481
sS'f_cpu'
p482
S'16000000L'
p483
sS'vid'
p484
S'0x2341'
p485
sS'pid'
p486
S'0x8037'
p487
sS'variant'
p488
S'micro'
p489
sS'mcu'
p490
S'atmega32u4'
p491
ssS'name'
p492
S'Arduino Micro'
p493
sS'upload'
p494
(dp495
S'speed'
p496
S'57600'
p497
sS'maximum_size'
p498
S'28672'
p499
sS'protocol'
p500
S'avr109'
p501
sS'disable_flushing'
p502
S'true'
p503
ssaa(lp504
S'mini328'
p505
a(dp506
S'bootloader'
p507
(dp508
S'extended_fuses'
p509
S'0x05'
p510
sS'high_fuses'
p511
S'0xd8'
p512
sS'low_fuses'
p513
S'0xff'
p514
sS'lock_bits'
p515
S'0x0F'
p516
sS'file'
p517
S'optiboot_atmega328-Mini.hex'
p518
sS'path'
p519
S'optiboot'
p520
sS'unlock_bits'
p521
S'0x3F'
p522
ssS'build'
p523
(dp524
S'core'
p525
S'arduino'
p526
sS'mcu'
p527
S'atmega328p'
p528
sS'f_cpu'
p529
S'16000000L'
p530
sS'variant'
p531
S'eightanaloginputs'
p532
ssS'name'
p533
S'Arduino Mini w/ ATmega328'
p534
sS'upload'
p535
(dp536
S'speed'
p537
S'115200'
p538
sS'maximum_size'
p539
S'28672'
p540
sS'protocol'
p541
S'arduino'
p542
ssaa(lp543
S'mini'
p544
a(dp545
S'bootloader'
p546
(dp547
S'extended_fuses'
p548
S'0x00'
p549
sS'high_fuses'
p550
S'0xdd'
p551
sS'low_fuses'
p552
S'0xff'
p553
sS'lock_bits'
p554
S'0x0F'
p555
sS'file'
p556
S'ATmegaBOOT_168_ng.hex'
p557
sS'path'
p558
S'atmega'
p559
sS'unlock_bits'
p560
S'0x3F'
p561
ssS'build'
p562
(dp563
S'core'
p564
S'arduino'
p565
sS'mcu'
p566
S'atmega168'
p567
sS'f_cpu'
p568
S'16000000L'
p569
sS'variant'
p570
S'eightanaloginputs'
p571
ssS'name'
p572
S'Arduino Mini w/ ATmega168'
p573
sS'upload'
p574
(dp575
S'speed'
p576
S'19200'
p577
sS'maximum_size'
p578
S'14336'
p579
sS'protocol'
p580
S'arduino'
p581
ssaa(lp582
S'ethernet'
p583
a(dp584
S'bootloader'
p585
(dp586
S'extended_fuses'
p587
S'0x05'
p588
sS'high_fuses'
p589
S'0xde'
p590
sS'low_fuses'
p591
S'0xff'
p592
sS'lock_bits'
p593
S'0x0F'
p594
sS'file'
p595
S'optiboot_atmega328.hex'
p596
sS'path'
p597
S'optiboot'
p598
sS'unlock_bits'
p599
S'0x3F'
p600
ssS'build'
p601
(dp602
S'f_cpu'
p603
S'16000000L'
p604
sS'mcu'
p605
S'atmega328p'
p606
sS'variant'
p607
S'standard'
p608
sS'core'
p609
S'arduino'
p610
ssS'name'
p611
S'Arduino Ethernet'
p612
sS'upload'
p613
(dp614
S'speed'
p615
S'115200'
p616
sS'maximum_size'
p617
S'32256'
p618
sS'protocol'
p619
S'arduino'
p620
ssaa(lp621
S'fio'
p622
a(dp623
S'bootloader'
p624
(dp625
S'extended_fuses'
p626
S'0x05'
p627
sS'high_fuses'
p628
S'0xDA'
p629
sS'low_fuses'
p630
S'0xFF'
p631
sS'lock_bits'
p632
S'0x0F'
p633
sS'file'
p634
S'ATmegaBOOT_168_atmega328_pro_8MHz.hex'
p635
sS'path'
p636
S'arduino:atmega'
p637
sS'unlock_bits'
p638
S'0x3F'
p639
ssS'build'
p640
(dp641
S'core'
p642
S'arduino'
p643
sS'mcu'
p644
S'atmega328p'
p645
sS'f_cpu'
p646
S'8000000L'
p647
sS'variant'
p648
S'eightanaloginputs'
p649
ssS'name'
p650
S'Arduino Fio'
p651
sS'upload'
p652
(dp653
S'speed'
p654
S'57600'
p655
sS'maximum_size'
p656
S'30720'
p657
sS'protocol'
p658
S'arduino'
p659
ssaa(lp660
S'bt328'
p661
a(dp662
S'bootloader'
p663
(dp664
S'extended_fuses'
p665
S'0x05'
p666
sS'high_fuses'
p667
S'0xd8'
p668
sS'low_fuses'
p669
S'0xff'
p670
sS'lock_bits'
p671
S'0x0F'
p672
sS'file'
p673
S'ATmegaBOOT_168_atmega328_bt.hex'
p674
sS'path'
p675
S'bt'
p676
sS'unlock_bits'
p677
S'0x3F'
p678
ssS'build'
p679
(dp680
S'core'
p681
S'arduino'
p682
sS'mcu'
p683
S'atmega328p'
p684
sS'f_cpu'
p685
S'16000000L'
p686
sS'variant'
p687
S'eightanaloginputs'
p688
ssS'name'
p689
S'Arduino BT w/ ATmega328'
p690
sS'upload'
p691
(dp692
S'speed'
p693
S'19200'
p694
sS'maximum_size'
p695
S'28672'
p696
sS'protocol'
p697
S'arduino'
p698
sS'disable_flushing'
p699
S'true'
p700
ssaa(lp701
S'bt'
p702
a(dp703
S'bootloader'
p704
(dp705
S'extended_fuses'
p706
S'0x00'
p707
sS'high_fuses'
p708
S'0xdd'
p709
sS'low_fuses'
p710
S'0xff'
p711
sS'lock_bits'
p712
S'0x0F'
p713
sS'file'
p714
S'ATmegaBOOT_168.hex'
p715
sS'path'
p716
S'bt'
p717
sS'unlock_bits'
p718
S'0x3F'
p719
ssS'build'
p720
(dp721
S'core'
p722
S'arduino'
p723
sS'mcu'
p724
S'atmega168'
p725
sS'f_cpu'
p726
S'16000000L'
p727
sS'variant'
p728
S'eightanaloginputs'
p729
ssS'name'
p730
S'Arduino BT w/ ATmega168'
p731
sS'upload'
p732
(dp733
S'speed'
p734
S'19200'
p735
sS'maximum_size'
p736
S'14336'
p737
sS'protocol'
p738
S'arduino'
p739
sS'disable_flushing'
p740
S'true'
p741
ssaa(lp742
S'LilyPadUSB'
p743
a(dp744
S'bootloader'
p745
(dp746
S'extended_fuses'
p747
S'0xce'
p748
sS'high_fuses'
p749
S'0xd8'
p750
sS'low_fuses'
p751
S'0xff'
p752
sS'lock_bits'
p753
S'0x2F'
p754
sS'file'
p755
S'Caterina-LilyPadUSB.hex'
p756
sS'path'
p757
S'caterina-LilyPadUSB'
p758
sS'unlock_bits'
p759
S'0x3F'
p760
ssS'build'
p761
(dp762
S'core'
p763
S'arduino'
p764
sS'f_cpu'
p765
S'8000000L'
p766
sS'vid'
p767
S'0x1B4F'
p768
sS'pid'
p769
S'0x9208'
p770
sS'variant'
p771
S'leonardo'
p772
sS'mcu'
p773
S'atmega32u4'
p774
ssS'name'
p775
S'LilyPad Arduino USB'
p776
sS'upload'
p777
(dp778
S'speed'
p779
S'57600'
p780
sS'maximum_size'
p781
S'28672'
p782
sS'protocol'
p783
S'avr109'
p784
sS'disable_flushing'
p785
S'true'
p786
ssaa(lp787
S'lilypad328'
p788
a(dp789
S'bootloader'
p790
(dp791
S'extended_fuses'
p792
S'0x05'
p793
sS'high_fuses'
p794
S'0xDA'
p795
sS'low_fuses'
p796
S'0xFF'
p797
sS'lock_bits'
p798
S'0x0F'
p799
sS'file'
p800
S'ATmegaBOOT_168_atmega328_pro_8MHz.hex'
p801
sS'path'
p802
S'atmega'
p803
sS'unlock_bits'
p804
S'0x3F'
p805
ssS'build'
p806
(dp807
S'core'
p808
S'arduino'
p809
sS'mcu'
p810
S'atmega328p'
p811
sS'f_cpu'
p812
S'8000000L'
p813
sS'variant'
p814
S'standard'
p815
ssS'name'
p816
S'LilyPad Arduino w/ ATmega328'
p817
sS'upload'
p818
(dp819
S'speed'
p820
S'57600'
p821
sS'maximum_size'
p822
S'30720'
p823
sS'protocol'
p824
S'arduino'
p825
ssaa(lp826
S'lilypad'
p827
a(dp828
S'bootloader'
p829
(dp830
S'extended_fuses'
p831
S'0x00'
p832
sS'high_fuses'
p833
S'0xdd'
p834
sS'low_fuses'
p835
S'0xe2'
p836
sS'lock_bits'
p837
S'0x0F'
p838
sS'file'
p839
S'LilyPadBOOT_168.hex'
p840
sS'path'
p841
S'lilypad'
p842
sS'unlock_bits'
p843
S'0x3F'
p844
ssS'build'
p845
(dp846
S'core'
p847
S'arduino'
p848
sS'mcu'
p849
S'atmega168'
p850
sS'f_cpu'
p851
S'8000000L'
p852
sS'variant'
p853
S'standard'
p854
ssS'name'
p855
S'LilyPad Arduino w/ ATmega168'
p856
sS'upload'
p857
(dp858
S'speed'
p859
S'19200'
p860
sS'maximum_size'
p861
S'14336'
p862
sS'protocol'
p863
S'arduino'
p864
ssaa(lp865
S'pro5v328'
p866
a(dp867
S'bootloader'
p868
(dp869
S'extended_fuses'
p870
S'0x05'
p871
sS'high_fuses'
p872
S'0xDA'
p873
sS'low_fuses'
p874
S'0xFF'
p875
sS'lock_bits'
p876
S'0x0F'
p877
sS'file'
p878
S'ATmegaBOOT_168_atmega328.hex'
p879
sS'path'
p880
S'atmega'
p881
sS'unlock_bits'
p882
S'0x3F'
p883
ssS'build'
p884
(dp885
S'core'
p886
S'arduino'
p887
sS'mcu'
p888
S'atmega328p'
p889
sS'f_cpu'
p890
S'16000000L'
p891
sS'variant'
p892
S'standard'
p893
ssS'name'
p894
S'Arduino Pro or Pro Mini (5V, 16 MHz) w/ ATmega328'
p895
sS'upload'
p896
(dp897
S'speed'
p898
S'57600'
p899
sS'maximum_size'
p900
S'30720'
p901
sS'protocol'
p902
S'arduino'
p903
ssaa(lp904
S'pro5v'
p905
a(dp906
S'bootloader'
p907
(dp908
S'extended_fuses'
p909
S'0x00'
p910
sS'high_fuses'
p911
S'0xdd'
p912
sS'low_fuses'
p913
S'0xff'
p914
sS'lock_bits'
p915
S'0x0F'
p916
sS'file'
p917
S'ATmegaBOOT_168_diecimila.hex'
p918
sS'path'
p919
S'atmega'
p920
sS'unlock_bits'
p921
S'0x3F'
p922
ssS'build'
p923
(dp924
S'core'
p925
S'arduino'
p926
sS'mcu'
p927
S'atmega168'
p928
sS'f_cpu'
p929
S'16000000L'
p930
sS'variant'
p931
S'standard'
p932
ssS'name'
p933
S'Arduino Pro or Pro Mini (5V, 16 MHz) w/ ATmega168'
p934
sS'upload'
p935
(dp936
S'speed'
p937
S'19200'
p938
sS'maximum_size'
p939
S'14336'
p940
sS'protocol'
p941
S'arduino'
p942
ssaa(lp943
S'pro328'
p944
a(dp945
S'bootloader'
p946
(dp947
S'extended_fuses'
p948
S'0x05'
p949
sS'high_fuses'
p950
S'0xDA'
p951
sS'low_fuses'
p952
S'0xFF'
p953
sS'lock_bits'
p954
S'0x0F'
p955
sS'file'
p956
S'ATmegaBOOT_168_atmega328_pro_8MHz.hex'
p957
sS'path'
p958
S'atmega'
p959
sS'unlock_bits'
p960
S'0x3F'
p961
ssS'build'
p962
(dp963
S'core'
p964
S'arduino'
p965
sS'mcu'
p966
S'atmega328p'
p967
sS'f_cpu'
p968
S'8000000L'
p969
sS'variant'
p970
S'standard'
p971
ssS'name'
p972
S'Arduino Pro or Pro Mini (3.3V, 8 MHz) w/ ATmega328'
p973
sS'upload'
p974
(dp975
S'speed'
p976
S'57600'
p977
sS'maximum_size'
p978
S'30720'
p979
sS'protocol'
p980
S'arduino'
p981
ssaa(lp982
S'pro'
p983
a(dp984
S'bootloader'
p985
(dp986
S'extended_fuses'
p987
S'0x00'
p988
sS'high_fuses'
p989
S'0xdd'
p990
sS'low_fuses'
p991
S'0xc6'
p992
sS'lock_bits'
p993
S'0x0F'
p994
sS'file'
p995
S'ATmegaBOOT_168_pro_8MHz.hex'
p996
sS'path'
p997
S'atmega'
p998
sS'unlock_bits'
p999
S'0x3F'
p1000
ssS'build'
p1001
(dp1002
S'core'
p1003
S'arduino'
p1004
sS'mcu'
p1005
S'atmega168'
p1006
sS'f_cpu'
p1007
S'8000000L'
p1008
sS'variant'
p1009
S'standard'
p1010
ssS'name'
p1011
S'Arduino Pro or Pro Mini (3.3V, 8 MHz) w/ ATmega168'
p1012
sS'upload'
p1013
(dp1014
S'speed'
p1015
S'19200'
p1016
sS'maximum_size'
p1017
S'14336'
p1018
sS'protocol'
p1019
S'arduino'
p1020
ssaa(lp1021
S'atmega168'
p1022
a(dp1023
S'bootloader'
p1024
(dp1025
S'extended_fuses'
p1026
S'0x00'
p1027
sS'high_fuses'
p1028
S'0xdd'
p1029
sS'low_fuses'
p1030
S'0xff'
p1031
sS'lock_bits'
p1032
S'0x0F'
p1033
sS'file'
p1034
S'ATmegaBOOT_168_ng.hex'
p1035
sS'path'
p1036
S'atmega'
p1037
sS'unlock_bits'
p1038
S'0x3F'
p1039
ssS'build'
p1040
(dp1041
S'core'
p1042
S'arduino'
p1043
sS'mcu'
p1044
S'atmega168'
p1045
sS'f_cpu'
p1046
S'16000000L'
p1047
sS'variant'
p1048
S'standard'
p1049
ssS'name'
p1050
S'Arduino NG or older w/ ATmega168'
p1051
sS'upload'
p1052
(dp1053
S'speed'
p1054
S'19200'
p1055
sS'maximum_size'
p1056
S'14336'
p1057
sS'protocol'
p1058
S'arduino'
p1059
ssaa(lp1060
S'atmega8'
p1061
a(dp1062
S'bootloader'
p1063
(dp1064
S'high_fuses'
p1065
S'0xca'
p1066
sS'low_fuses'
p1067
S'0xdf'
p1068
sS'lock_bits'
p1069
S'0x0F'
p1070
sS'file'
p1071
S'ATmegaBOOT-prod-firmware-2009-11-07.hex'
p1072
sS'path'
p1073
S'atmega8'
p1074
sS'unlock_bits'
p1075
S'0x3F'
p1076
ssS'build'
p1077
(dp1078
S'core'
p1079
S'arduino'
p1080
sS'mcu'
p1081
S'atmega8'
p1082
sS'f_cpu'
p1083
S'16000000L'
p1084
sS'variant'
p1085
S'standard'
p1086
ssS'name'
p1087
S'Arduino NG or older w/ ATmega8'
p1088
sS'upload'
p1089
(dp1090
S'speed'
p1091
S'19200'
p1092
sS'maximum_size'
p1093
S'7168'
p1094
sS'protocol'
p1095
S'arduino'
p1096
ssaa(lp1097
S'robotControl'
p1098
a(dp1099
S'bootloader'
p1100
(dp1101
S'extended_fuses'
p1102
S'0xcb'
p1103
sS'high_fuses'
p1104
S'0xd8'
p1105
sS'low_fuses'
p1106
S'0xff'
p1107
sS'lock_bits'
p1108
S'0x2F'
p1109
sS'file'
p1110
S'Caterina-Robot-Control.hex'
p1111
sS'path'
p1112
S'caterina-Arduino_Robot'
p1113
sS'unlock_bits'
p1114
S'0x3F'
p1115
ssS'build'
p1116
(dp1117
S'core'
p1118
S'robot'
p1119
sS'f_cpu'
p1120
S'16000000L'
p1121
sS'vid'
p1122
S'0x2341'
p1123
sS'pid'
p1124
S'0x8038'
p1125
sS'variant'
p1126
S'robot_control'
p1127
sS'mcu'
p1128
S'atmega32u4'
p1129
ssS'name'
p1130
S'Arduino Robot Control'
p1131
sS'upload'
p1132
(dp1133
S'speed'
p1134
S'57600'
p1135
sS'maximum_size'
p1136
S'28672'
p1137
sS'protocol'
p1138
S'avr109'
p1139
sS'disable_flushing'
p1140
S'true'
p1141
ssaa(lp1142
S'robotMotor'
p1143
a(dp1144
S'bootloader'
p1145
(dp1146
S'extended_fuses'
p1147
S'0xcb'
p1148
sS'high_fuses'
p1149
S'0xd8'
p1150
sS'low_fuses'
p1151
S'0xff'
p1152
sS'lock_bits'
p1153
S'0x2F'
p1154
sS'file'
p1155
S'Caterina-Robot-Motor.hex'
p1156
sS'path'
p1157
S'caterina-Arduino_Robot'
p1158
sS'unlock_bits'
p1159
S'0x3F'
p1160
ssS'build'
p1161
(dp1162
S'core'
p1163
S'robot'
p1164
sS'f_cpu'
p1165
S'16000000L'
p1166
sS'vid'
p1167
S'0x2341'
p1168
sS'pid'
p1169
S'0x8039'
p1170
sS'variant'
p1171
S'robot_motor'
p1172
sS'mcu'
p1173
S'atmega32u4'
p1174
ssS'name'
p1175
S'Arduino Robot Motor'
p1176
sS'upload'
p1177
(dp1178
S'speed'
p1179
S'57600'
p1180
sS'maximum_size'
p1181
S'28672'
p1182
sS'protocol'
p1183
S'avr109'
p1184
sS'disable_flushing'
p1185
S'true'
p1186
ssaatp1187
Rp1188
(dp1189
S'default'
p1190
S'uno'
p1191
sbtp1192
a(S'ldflags'
p1193
g2
(g3
g4
(lp1194
g6
aS'-Wl,-Os'
p1195
aS'-Wl,--gc-sections'
p1196
atp1197
Rp1198
tp1199
a.